(lp0
(S'cppflags'
p1
ccopy_reg
_reconstructor
p2
(cino.utils
SpaceList
p3
c__builtin__
list
p4
(lp5
S'-mmcu=atmega32u4'
p6
aS'-DF_CPU=16000000L'
p7
aS'-DARDUINO=161'
p8
aS'-I/usr/share/arduino/hardware/arduino/avr/cores/arduino'
p9
aS'-ffunction-sections'
p10
aS'-fdata-sections'
p11
aS'-g'
p12
aS'-Os'
p13
aS'-w'
p14
aS'-DUSB_VID=0x2341'
p15
aS'-DUSB_PID=0x8036'
p16
aS'-I/usr/share/arduino/hardware/arduino/avr/variants/leonardo'
p17
atp18
Rp19
tp20
a(S'version.txt'
p21
S'/usr/share/arduino/lib/version.txt'
p22
tp23
a(S'cc'
p24
S'/usr/share/arduino/hardware/tools/avr/bin/avr-gcc'
p25
tp26
a(S'make'
p27
S'/usr/bin/make'
p28
tp29
a(S'build_dir'
p30
S'.build/leonardo'
p31
tp32
a(S'arduino_core_dir'
p33
S'/usr/share/arduino/hardware/arduino/avr/cores/arduino'
p34
tp35
a(S'boards.txt'
p36
(lp37
S'/usr/share/arduino/hardware/arduino/avr/boards.txt'
p38
aS'/usr/share/arduino/hardware/arduino/sam/boards.txt'
p39
atp40
a(S'cxxflags'
p41
g2
(g3
g4
(lp42
S'-fno-exceptions'
p43
atp44
Rp45
tp46
a(S'arduino_variants_dir'
p47
S'/usr/share/arduino/hardware/arduino/avr/variants'
p48
tp49
a(S'deps'
p50
g2
(g3
g4
(lp51
tp52
Rp53
tp54
a(S'ar'
p55
S'/usr/share/arduino/hardware/tools/avr/bin/avr-ar'
p56
tp57
a(S'names'
p58
(dp59
S'cpp'
p60
S'%s.cpp'
p61
sS'obj'
p62
S'%s.o'
p63
sg50
S'%s.d'
p64
sS'lib'
p65
S'lib%s.a'
p66
stp67
a(S'cflags'
p68
g2
(g3
g4
(lp69
tp70
Rp71
tp72
a(S'ldflags'
p73
g2
(g3
g4
(lp74
g6
aS'-Wl,-Os'
p75
aS'-Wl,--gc-sections'
p76
atp77
Rp78
tp79
a(S'arduino_libraries_dir'
p80
S'/usr/share/arduino/libraries'
p81
tp82
a(S'arduino_lib_version'
p83
g2
(cino.environment
Version
p84
c__builtin__
tuple
p85
(I1
I6
I1
tp86
tp87
Rp88
tp89
a(S'objcopy'
p90
S'/usr/share/arduino/hardware/tools/avr/bin/avr-objcopy'
p91
tp92
a(S'board_models'
p93
cino.environment
BoardModels
p94
((lp95
(lp96
S'menu'
p97
a(dp98
S'cpu'
p99
S'Processor'
p100
sS'_coredir'
p101
S'/usr/share/arduino/hardware/arduino/avr'
p102
saa(lp103
S'yun'
p104
a(dp105
S'name'
p106
S'Arduino Y\xc3\xban'
p107
sS'vid'
p108
(dp109
S'1'
p110
S'0x2341'
p111
sS'0'
p112
S'0x2341'
p113
sS'3'
p114
S'0x2A03'
p115
sS'2'
p116
S'0x2A03'
p117
sS'0x2A03'
p118
(dp119
S'warning'
p120
S'Uncertified'
p121
sssS'pid'
p122
(dp123
g110
S'0x8041'
p124
sg112
S'0x0041'
p125
sg114
S'0x8041'
p126
sg116
S'0x0041'
p127
ssS'upload'
p128
(dp129
S'protocol'
p130
S'avr109'
p131
sS'disable_flushing'
p132
S'true'
p133
sS'tool'
p134
S'avrdude'
p135
sS'maximum_data_size'
p136
S'2560'
p137
sS'via_ssh'
p138
S'true'
p139
sS'maximum_size'
p140
S'28672'
p141
sS'use_1200bps_touch'
p142
S'true'
p143
sS'speed'
p144
S'57600'
p145
sS'wait_for_upload_port'
p146
S'true'
p147
ssS'build'
p148
(dp149
S'core'
p150
S'arduino'
p151
sS'f_cpu'
p152
S'16000000L'
p153
sS'vid'
p154
S'0x2341'
p155
sS'usb_product'
p156
S'"Arduino Yun"'
p157
sS'pid'
p158
S'0x8041'
p159
sS'extra_flags'
p160
S'{build.usb_flags}'
p161
sS'board'
p162
S'AVR_YUN'
p163
sS'mcu'
p164
S'atmega32u4'
p165
sS'variant'
p166
S'yun'
p167
ssg101
S'/usr/share/arduino/hardware/arduino/avr'
p168
sS'bootloader'
p169
(dp170
S'extended_fuses'
p171
S'0xfb'
p172
sS'high_fuses'
p173
S'0xd8'
p174
sS'low_fuses'
p175
S'0xff'
p176
sS'lock_bits'
p177
S'0x2F'
p178
sS'tool'
p179
S'avrdude'
p180
sS'file'
p181
S'caterina/Caterina-Yun.hex'
p182
sS'unlock_bits'
p183
S'0x3F'
p184
ssaa(lp185
S'uno'
p186
a(dp187
S'name'
p188
S'Arduino Uno'
p189
sS'vid'
p190
(dp191
g110
S'0x2341'
p192
sg112
S'0x2341'
p193
sS'0x2A03'
p194
(dp195
S'warning'
p196
S'Uncertified'
p197
ssg116
S'0x2A03'
p198
ssS'pid'
p199
(dp200
g110
S'0x0001'
p201
sg112
S'0x0043'
p202
sg116
S'0x0043'
p203
ssS'upload'
p204
(dp205
S'speed'
p206
S'115200'
p207
sS'tool'
p208
S'avrdude'
p209
sS'protocol'
p210
S'arduino'
p211
sS'maximum_size'
p212
S'32256'
p213
sS'maximum_data_size'
p214
S'2048'
p215
ssS'build'
p216
(dp217
S'core'
p218
S'arduino'
p219
sS'mcu'
p220
S'atmega328p'
p221
sS'f_cpu'
p222
S'16000000L'
p223
sS'board'
p224
S'AVR_UNO'
p225
sS'variant'
p226
S'standard'
p227
ssg101
S'/usr/share/arduino/hardware/arduino/avr'
p228
sS'bootloader'
p229
(dp230
S'extended_fuses'
p231
S'0x05'
p232
sS'high_fuses'
p233
S'0xDE'
p234
sS'low_fuses'
p235
S'0xFF'
p236
sS'lock_bits'
p237
S'0x0F'
p238
sS'tool'
p239
S'avrdude'
p240
sS'file'
p241
S'optiboot/optiboot_atmega328.hex'
p242
sS'unlock_bits'
p243
S'0x3F'
p244
ssaa(lp245
S'diecimila'
p246
a(dp247
S'name'
p248
S'Arduino Duemilanove or Diecimila'
p249
sS'menu'
p250
(dp251
S'cpu'
p252
(dp253
S'atmega168'
p254
(dp255
S'bootloader'
p256
(dp257
S'extended_fuses'
p258
S'0x00'
p259
sS'high_fuses'
p260
S'0xdd'
p261
sS'file'
p262
S'atmega/ATmegaBOOT_168_diecimila.hex'
p263
ssS'upload'
p264
(dp265
S'maximum_size'
p266
S'14336'
p267
sS'speed'
p268
S'19200'
p269
sS'maximum_data_size'
p270
S'1024'
p271
ssS'_'
p272
S'ATmega168'
p273
sS'build'
p274
(dp275
S'mcu'
p276
S'atmega168'
p277
sssS'atmega328'
p278
(dp279
S'bootloader'
p280
(dp281
S'extended_fuses'
p282
S'0x05'
p283
sS'high_fuses'
p284
S'0xDA'
p285
sS'file'
p286
S'atmega/ATmegaBOOT_168_atmega328.hex'
p287
ssS'upload'
p288
(dp289
S'maximum_size'
p290
S'30720'
p291
sS'speed'
p292
S'57600'
p293
sS'maximum_data_size'
p294
S'2048'
p295
ssg272
S'ATmega328'
p296
sS'build'
p297
(dp298
S'mcu'
p299
S'atmega328p'
p300
sssssS'upload'
p301
(dp302
S'tool'
p303
S'avrdude'
p304
sS'protocol'
p305
S'arduino'
p306
ssS'build'
p307
(dp308
S'core'
p309
S'arduino'
p310
sS'f_cpu'
p311
S'16000000L'
p312
sS'board'
p313
S'AVR_DUEMILANOVE'
p314
sS'variant'
p315
S'standard'
p316
ssg101
S'/usr/share/arduino/hardware/arduino/avr'
p317
sS'bootloader'
p318
(dp319
S'low_fuses'
p320
S'0xFF'
p321
sS'lock_bits'
p322
S'0x0F'
p323
sS'tool'
p324
S'avrdude'
p325
sS'unlock_bits'
p326
S'0x3F'
p327
ssaa(lp328
S'nano'
p329
a(dp330
S'name'
p331
S'Arduino Nano'
p332
sS'menu'
p333
(dp334
S'cpu'
p335
(dp336
S'atmega168'
p337
(dp338
S'bootloader'
p339
(dp340
S'low_fuses'
p341
S'0xff'
p342
sS'extended_fuses'
p343
S'0x00'
p344
sS'high_fuses'
p345
S'0xdd'
p346
sS'file'
p347
S'atmega/ATmegaBOOT_168_diecimila.hex'
p348
ssS'upload'
p349
(dp350
S'maximum_size'
p351
S'14336'
p352
sS'speed'
p353
S'19200'
p354
sS'maximum_data_size'
p355
S'1024'
p356
ssg272
S'ATmega168'
p357
sS'build'
p358
(dp359
S'mcu'
p360
S'atmega168'
p361
sssS'atmega328'
p362
(dp363
S'bootloader'
p364
(dp365
S'low_fuses'
p366
S'0xFF'
p367
sS'extended_fuses'
p368
S'0x05'
p369
sS'high_fuses'
p370
S'0xDA'
p371
sS'file'
p372
S'atmega/ATmegaBOOT_168_atmega328.hex'
p373
ssS'upload'
p374
(dp375
S'maximum_size'
p376
S'30720'
p377
sS'speed'
p378
S'57600'
p379
sS'maximum_data_size'
p380
S'2048'
p381
ssg272
S'ATmega328'
p382
sS'build'
p383
(dp384
S'mcu'
p385
S'atmega328p'
p386
sssssS'upload'
p387
(dp388
S'tool'
p389
S'avrdude'
p390
sS'protocol'
p391
S'arduino'
p392
ssS'build'
p393
(dp394
S'core'
p395
S'arduino'
p396
sS'f_cpu'
p397
S'16000000L'
p398
sS'board'
p399
S'AVR_NANO'
p400
sS'variant'
p401
S'eightanaloginputs'
p402
ssg101
S'/usr/share/arduino/hardware/arduino/avr'
p403
sS'bootloader'
p404
(dp405
S'lock_bits'
p406
S'0x0F'
p407
sS'tool'
p408
S'avrdude'
p409
sS'unlock_bits'
p410
S'0x3F'
p411
ssaa(lp412
S'mega'
p413
a(dp414
S'name'
p415
S'Arduino Mega or Mega 2560'
p416
sS'vid'
p417
(dp418
g110
S'0x2341'
p419
sg112
S'0x2341'
p420
sg114
S'0x2A03'
p421
sg116
S'0x2A03'
p422
sS'0x2A03'
p423
(dp424
S'warning'
p425
S'Uncertified'
p426
sssS'menu'
p427
(dp428
S'cpu'
p429
(dp430
S'atmega1280'
p431
(dp432
S'bootloader'
p433
(dp434
S'extended_fuses'
p435
S'0xF5'
p436
sS'high_fuses'
p437
S'0xDA'
p438
sS'file'
p439
S'atmega/ATmegaBOOT_168_atmega1280.hex'
p440
ssS'upload'
p441
(dp442
S'speed'
p443
S'57600'
p444
sS'maximum_size'
p445
S'126976'
p446
sS'protocol'
p447
S'arduino'
p448
ssg272
S'ATmega1280'
p449
sS'build'
p450
(dp451
S'mcu'
p452
S'atmega1280'
p453
sS'board'
p454
S'AVR_MEGA'
p455
sssS'atmega2560'
p456
(dp457
S'bootloader'
p458
(dp459
S'extended_fuses'
p460
S'0xFD'
p461
sS'high_fuses'
p462
S'0xD8'
p463
sS'file'
p464
S'stk500v2/stk500boot_v2_mega2560.hex'
p465
ssS'upload'
p466
(dp467
S'speed'
p468
S'115200'
p469
sS'maximum_size'
p470
S'253952'
p471
sS'protocol'
p472
S'wiring'
p473
ssg272
S'ATmega2560 (Mega 2560)'
p474
sS'build'
p475
(dp476
S'mcu'
p477
S'atmega2560'
p478
sS'board'
p479
S'AVR_MEGA2560'
p480
sssssS'pid'
p481
(dp482
g110
S'0x0042'
p483
sg112
S'0x0010'
p484
sg114
S'0x0042'
p485
sg116
S'0x0010'
p486
ssS'upload'
p487
(dp488
S'tool'
p489
S'avrdude'
p490
sS'maximum_data_size'
p491
S'8192'
p492
ssS'build'
p493
(dp494
S'core'
p495
S'arduino'
p496
sS'f_cpu'
p497
S'16000000L'
p498
sS'board'
p499
S'AVR_MEGA2560'
p500
sS'variant'
p501
S'mega'
p502
ssg101
S'/usr/share/arduino/hardware/arduino/avr'
p503
sS'bootloader'
p504
(dp505
S'low_fuses'
p506
S'0xFF'
p507
sS'lock_bits'
p508
S'0x0F'
p509
sS'tool'
p510
S'avrdude'
p511
sS'unlock_bits'
p512
S'0x3F'
p513
ssaa(lp514
S'megaADK'
p515
a(dp516
S'name'
p517
S'Arduino Mega ADK'
p518
sS'vid'
p519
(dp520
g110
S'0x2341'
p521
sg112
S'0x2341'
p522
sg114
S'0x2A03'
p523
sg116
S'0x2A03'
p524
sS'0x2A03'
p525
(dp526
S'warning'
p527
S'Uncertified'
p528
sssS'pid'
p529
(dp530
g110
S'0x0044'
p531
sg112
S'0x003f'
p532
sg114
S'0x0044'
p533
sg116
S'0x003f'
p534
ssS'upload'
p535
(dp536
S'speed'
p537
S'115200'
p538
sS'tool'
p539
S'avrdude'
p540
sS'protocol'
p541
S'wiring'
p542
sS'maximum_size'
p543
S'253952'
p544
sS'maximum_data_size'
p545
S'8192'
p546
ssS'build'
p547
(dp548
S'core'
p549
S'arduino'
p550
sS'mcu'
p551
S'atmega2560'
p552
sS'f_cpu'
p553
S'16000000L'
p554
sS'board'
p555
S'AVR_ADK'
p556
sS'variant'
p557
S'mega'
p558
ssg101
S'/usr/share/arduino/hardware/arduino/avr'
p559
sS'bootloader'
p560
(dp561
S'extended_fuses'
p562
S'0xFD'
p563
sS'high_fuses'
p564
S'0xD8'
p565
sS'low_fuses'
p566
S'0xFF'
p567
sS'lock_bits'
p568
S'0x0F'
p569
sS'tool'
p570
S'avrdude'
p571
sS'file'
p572
S'stk500v2/stk500boot_v2_mega2560.hex'
p573
sS'unlock_bits'
p574
S'0x3F'
p575
ssaa(lp576
S'leonardo'
p577
a(dp578
S'name'
p579
S'Arduino Leonardo'
p580
sS'vid'
p581
(dp582
g110
S'0x2341'
p583
sg112
S'0x2341'
p584
sg114
S'0x2A03'
p585
sg116
S'0x2A03'
p586
sS'0x2A03'
p587
(dp588
S'warning'
p589
S'Uncertified'
p590
sssS'pid'
p591
(dp592
g110
S'0x8036'
p593
sg112
S'0x0036'
p594
sg114
S'0x8036'
p595
sg116
S'0x0036'
p596
ssS'upload'
p597
(dp598
S'protocol'
p599
S'avr109'
p600
sS'disable_flushing'
p601
S'true'
p602
sS'tool'
p603
S'avrdude'
p604
sS'maximum_data_size'
p605
S'2560'
p606
sS'maximum_size'
p607
S'28672'
p608
sS'use_1200bps_touch'
p609
S'true'
p610
sS'speed'
p611
S'57600'
p612
sS'wait_for_upload_port'
p613
S'true'
p614
ssS'build'
p615
(dp616
S'core'
p617
S'arduino'
p618
sS'f_cpu'
p619
S'16000000L'
p620
sS'vid'
p621
S'0x2341'
p622
sS'usb_product'
p623
S'"Arduino Leonardo"'
p624
sS'pid'
p625
S'0x8036'
p626
sS'extra_flags'
p627
S'{build.usb_flags}'
p628
sS'board'
p629
S'AVR_LEONARDO'
p630
sS'mcu'
p631
S'atmega32u4'
p632
sS'variant'
p633
S'leonardo'
p634
ssg101
S'/usr/share/arduino/hardware/arduino/avr'
p635
sS'bootloader'
p636
(dp637
S'extended_fuses'
p638
S'0xcb'
p639
sS'high_fuses'
p640
S'0xd8'
p641
sS'low_fuses'
p642
S'0xff'
p643
sS'lock_bits'
p644
S'0x2F'
p645
sS'tool'
p646
S'avrdude'
p647
sS'file'
p648
S'caterina/Caterina-Leonardo.hex'
p649
sS'unlock_bits'
p650
S'0x3F'
p651
ssaa(lp652
S'micro'
p653
a(dp654
S'name'
p655
S'Arduino Micro'
p656
sS'vid'
p657
(dp658
g110
S'0x2341'
p659
sg112
S'0x2341'
p660
sg114
S'0x2A03'
p661
sg116
S'0x2A03'
p662
sS'0x2A03'
p663
(dp664
S'warning'
p665
S'Uncertified'
p666
sssS'pid'
p667
(dp668
g110
S'0x8037'
p669
sg112
S'0x0037'
p670
sg114
S'0x8037'
p671
sg116
S'0x0037'
p672
ssS'upload'
p673
(dp674
S'protocol'
p675
S'avr109'
p676
sS'disable_flushing'
p677
S'true'
p678
sS'tool'
p679
S'avrdude'
p680
sS'maximum_data_size'
p681
S'2560'
p682
sS'maximum_size'
p683
S'28672'
p684
sS'use_1200bps_touch'
p685
S'true'
p686
sS'speed'
p687
S'57600'
p688
sS'wait_for_upload_port'
p689
S'true'
p690
ssS'build'
p691
(dp692
S'core'
p693
S'arduino'
p694
sS'f_cpu'
p695
S'16000000L'
p696
sS'vid'
p697
S'0x2341'
p698
sS'usb_product'
p699
S'"Arduino Micro"'
p700
sS'pid'
p701
S'0x8037'
p702
sS'extra_flags'
p703
S'{build.usb_flags}'
p704
sS'board'
p705
S'AVR_MICRO'
p706
sS'mcu'
p707
S'atmega32u4'
p708
sS'variant'
p709
S'micro'
p710
ssg101
S'/usr/share/arduino/hardware/arduino/avr'
p711
sS'bootloader'
p712
(dp713
S'extended_fuses'
p714
S'0xcb'
p715
sS'high_fuses'
p716
S'0xd8'
p717
sS'low_fuses'
p718
S'0xff'
p719
sS'lock_bits'
p720
S'0x2F'
p721
sS'tool'
p722
S'avrdude'
p723
sS'file'
p724
S'caterina/Caterina-Micro.hex'
p725
sS'unlock_bits'
p726
S'0x3F'
p727
ssaa(lp728
S'esplora'
p729
a(dp730
S'name'
p731
S'Arduino Esplora'
p732
sS'vid'
p733
(dp734
g110
S'0x2341'
p735
sg112
S'0x2341'
p736
sg114
S'0x2A03'
p737
sg116
S'0x2A03'
p738
sS'0x2A03'
p739
(dp740
S'warning'
p741
S'Uncertified'
p742
sssS'pid'
p743
(dp744
g110
S'0x803C'
p745
sg112
S'0x003C'
p746
sg114
S'0x803C'
p747
sg116
S'0x003C'
p748
ssS'upload'
p749
(dp750
S'protocol'
p751
S'avr109'
p752
sS'disable_flushing'
p753
S'true'
p754
sS'tool'
p755
S'avrdude'
p756
sS'maximum_data_size'
p757
S'2560'
p758
sS'maximum_size'
p759
S'28672'
p760
sS'use_1200bps_touch'
p761
S'true'
p762
sS'speed'
p763
S'57600'
p764
sS'wait_for_upload_port'
p765
S'true'
p766
ssS'build'
p767
(dp768
S'core'
p769
S'arduino'
p770
sS'f_cpu'
p771
S'16000000L'
p772
sS'vid'
p773
S'0x2341'
p774
sS'usb_product'
p775
S'"Arduino Esplora"'
p776
sS'pid'
p777
S'0x803c'
p778
sS'extra_flags'
p779
S'{build.usb_flags}'
p780
sS'board'
p781
S'AVR_ESPLORA'
p782
sS'mcu'
p783
S'atmega32u4'
p784
sS'variant'
p785
S'leonardo'
p786
ssg101
S'/usr/share/arduino/hardware/arduino/avr'
p787
sS'bootloader'
p788
(dp789
S'extended_fuses'
p790
S'0xcb'
p791
sS'high_fuses'
p792
S'0xd8'
p793
sS'low_fuses'
p794
S'0xff'
p795
sS'lock_bits'
p796
S'0x2F'
p797
sS'tool'
p798
S'avrdude'
p799
sS'file'
p800
S'caterina/Caterina-Esplora.hex'
p801
sS'unlock_bits'
p802
S'0x3F'
p803
ssaa(lp804
S'mini'
p805
a(dp806
S'name'
p807
S'Arduino Mini'
p808
sS'menu'
p809
(dp810
S'cpu'
p811
(dp812
S'atmega168'
p813
(dp814
S'bootloader'
p815
(dp816
S'extended_fuses'
p817
S'0x00'
p818
sS'high_fuses'
p819
S'0xdd'
p820
sS'file'
p821
S'atmega/ATmegaBOOT_168_ng.hex'
p822
ssS'upload'
p823
(dp824
S'maximum_size'
p825
S'14336'
p826
sS'speed'
p827
S'19200'
p828
sS'maximum_data_size'
p829
S'1024'
p830
ssg272
S'ATmega168'
p831
sS'build'
p832
(dp833
S'mcu'
p834
S'atmega168'
p835
sssS'atmega328'
p836
(dp837
S'bootloader'
p838
(dp839
S'extended_fuses'
p840
S'0x05'
p841
sS'high_fuses'
p842
S'0xd8'
p843
sS'file'
p844
S'optiboot/optiboot_atmega328-Mini.hex'
p845
ssS'upload'
p846
(dp847
S'maximum_size'
p848
S'28672'
p849
sS'speed'
p850
S'115200'
p851
sS'maximum_data_size'
p852
S'2048'
p853
ssg272
S'ATmega328'
p854
sS'build'
p855
(dp856
S'mcu'
p857
S'atmega328p'
p858
sssssS'upload'
p859
(dp860
S'tool'
p861
S'avrdude'
p862
sS'protocol'
p863
S'arduino'
p864
ssS'build'
p865
(dp866
S'core'
p867
S'arduino'
p868
sS'f_cpu'
p869
S'16000000L'
p870
sS'board'
p871
S'AVR_MINI'
p872
sS'variant'
p873
S'eightanaloginputs'
p874
ssg101
S'/usr/share/arduino/hardware/arduino/avr'
p875
sS'bootloader'
p876
(dp877
S'low_fuses'
p878
S'0xff'
p879
sS'lock_bits'
p880
S'0x0F'
p881
sS'tool'
p882
S'avrdude'
p883
sS'unlock_bits'
p884
S'0x3F'
p885
ssaa(lp886
S'ethernet'
p887
a(dp888
S'build'
p889
(dp890
S'f_cpu'
p891
S'16000000L'
p892
sS'mcu'
p893
S'atmega328p'
p894
sS'variant'
p895
S'ethernet'
p896
sS'board'
p897
S'AVR_ETHERNET'
p898
sS'core'
p899
S'arduino'
p900
ssS'bootloader'
p901
(dp902
S'extended_fuses'
p903
S'0x05'
p904
sS'high_fuses'
p905
S'0xde'
p906
sS'low_fuses'
p907
S'0xff'
p908
sS'lock_bits'
p909
S'0x0F'
p910
sS'tool'
p911
S'avrdude'
p912
sS'file'
p913
S'optiboot/optiboot_atmega328.hex'
p914
sS'unlock_bits'
p915
S'0x3F'
p916
ssS'upload'
p917
(dp918
S'speed'
p919
S'115200'
p920
sS'tool'
p921
S'avrdude'
p922
sS'protocol'
p923
S'arduino'
p924
sS'maximum_size'
p925
S'32256'
p926
sS'maximum_data_size'
p927
S'2048'
p928
ssS'name'
p929
S'Arduino Ethernet'
p930
sg101
S'/usr/share/arduino/hardware/arduino/avr'
p931
saa(lp932
S'fio'
p933
a(dp934
S'build'
p935
(dp936
S'core'
p937
S'arduino'
p938
sS'mcu'
p939
S'atmega328p'
p940
sS'f_cpu'
p941
S'8000000L'
p942
sS'board'
p943
S'AVR_FIO'
p944
sS'variant'
p945
S'eightanaloginputs'
p946
ssS'bootloader'
p947
(dp948
S'extended_fuses'
p949
S'0x05'
p950
sS'high_fuses'
p951
S'0xDA'
p952
sS'low_fuses'
p953
S'0xFF'
p954
sS'lock_bits'
p955
S'0x0F'
p956
sS'tool'
p957
S'avrdude'
p958
sS'file'
p959
S'atmega/ATmegaBOOT_168_atmega328_pro_8MHz.hex'
p960
sS'unlock_bits'
p961
S'0x3F'
p962
ssS'upload'
p963
(dp964
S'speed'
p965
S'57600'
p966
sS'tool'
p967
S'avrdude'
p968
sS'protocol'
p969
S'arduino'
p970
sS'maximum_size'
p971
S'30720'
p972
sS'maximum_data_size'
p973
S'2048'
p974
ssS'name'
p975
S'Arduino Fio'
p976
sg101
S'/usr/share/arduino/hardware/arduino/avr'
p977
saa(lp978
S'bt'
p979
a(dp980
S'name'
p981
S'Arduino BT'
p982
sS'menu'
p983
(dp984
S'cpu'
p985
(dp986
S'atmega168'
p987
(dp988
S'bootloader'
p989
(dp990
S'extended_fuses'
p991
S'0x00'
p992
sS'high_fuses'
p993
S'0xdd'
p994
sS'file'
p995
S'bt/ATmegaBOOT_168.hex'
p996
ssS'upload'
p997
(dp998
S'maximum_size'
p999
S'14336'
p1000
sS'maximum_data_size'
p1001
S'1024'
p1002
ssg272
S'ATmega168'
p1003
sS'build'
p1004
(dp1005
S'mcu'
p1006
S'atmega168'
p1007
sssS'atmega328'
p1008
(dp1009
S'bootloader'
p1010
(dp1011
S'extended_fuses'
p1012
S'0x05'
p1013
sS'high_fuses'
p1014
S'0xd8'
p1015
sS'file'
p1016
S'bt/ATmegaBOOT_168_atmega328_bt.hex'
p1017
ssS'upload'
p1018
(dp1019
S'maximum_size'
p1020
S'28672'
p1021
sS'maximum_data_size'
p1022
S'2048'
p1023
ssg272
S'ATmega328'
p1024
sS'build'
p1025
(dp1026
S'mcu'
p1027
S'atmega328p'
p1028
sssssS'upload'
p1029
(dp1030
S'speed'
p1031
S'19200'
p1032
sS'tool'
p1033
S'avrdude'
p1034
sS'protocol'
p1035
S'arduino'
p1036
sS'disable_flushing'
p1037
S'true'
p1038
ssS'build'
p1039
(dp1040
S'core'
p1041
S'arduino'
p1042
sS'f_cpu'
p1043
S'16000000L'
p1044
sS'board'
p1045
S'AVR_BT'
p1046
sS'variant'
p1047
S'eightanaloginputs'
p1048
ssg101
S'/usr/share/arduino/hardware/arduino/avr'
p1049
sS'bootloader'
p1050
(dp1051
S'low_fuses'
p1052
S'0xff'
p1053
sS'lock_bits'
p1054
S'0x0F'
p1055
sS'tool'
p1056
S'avrdude'
p1057
sS'unlock_bits'
p1058
S'0x3F'
p1059
ssaa(lp1060
S'LilyPadUSB'
p1061
a(dp1062
S'name'
p1063
S'LilyPad Arduino USB'
p1064
sS'vid'
p1065
(dp1066
g110
S'0x1B4F'
p1067
sg112
S'0x1B4F'
p1068
ssS'pid'
p1069
(dp1070
g110
S'0x9208'
p1071
sg112
S'0x9207'
p1072
ssS'upload'
p1073
(dp1074
S'protocol'
p1075
S'avr109'
p1076
sS'disable_flushing'
p1077
S'true'
p1078
sS'tool'
p1079
S'avrdude'
p1080
sS'maximum_data_size'
p1081
S'2560'
p1082
sS'maximum_size'
p1083
S'28672'
p1084
sS'use_1200bps_touch'
p1085
S'true'
p1086
sS'speed'
p1087
S'57600'
p1088
sS'wait_for_upload_port'
p1089
S'true'
p1090
ssS'build'
p1091
(dp1092
S'core'
p1093
S'arduino'
p1094
sS'f_cpu'
p1095
S'8000000L'
p1096
sS'vid'
p1097
S'0x1B4F'
p1098
sS'usb_product'
p1099
S'"LilyPad USB"'
p1100
sS'pid'
p1101
S'0x9208'
p1102
sS'extra_flags'
p1103
S'{build.usb_flags}'
p1104
sS'board'
p1105
S'AVR_LILYPAD_USB'
p1106
sS'mcu'
p1107
S'atmega32u4'
p1108
sS'variant'
p1109
S'leonardo'
p1110
ssg101
S'/usr/share/arduino/hardware/arduino/avr'
p1111
sS'bootloader'
p1112
(dp1113
S'extended_fuses'
p1114
S'0xce'
p1115
sS'high_fuses'
p1116
S'0xd8'
p1117
sS'low_fuses'
p1118
S'0xff'
p1119
sS'lock_bits'
p1120
S'0x2F'
p1121
sS'tool'
p1122
S'avrdude'
p1123
sS'file'
p1124
S'caterina-LilyPadUSB/Caterina-LilyPadUSB.hex'
p1125
sS'unlock_bits'
p1126
S'0x3F'
p1127
ssaa(lp1128
S'lilypad'
p1129
a(dp1130
S'name'
p1131
S'LilyPad Arduino'
p1132
sS'menu'
p1133
(dp1134
S'cpu'
p1135
(dp1136
S'atmega168'
p1137
(dp1138
S'bootloader'
p1139
(dp1140
S'low_fuses'
p1141
S'0xe2'
p1142
sS'extended_fuses'
p1143
S'0x00'
p1144
sS'high_fuses'
p1145
S'0xdd'
p1146
sS'file'
p1147
S'lilypad/LilyPadBOOT_168.hex'
p1148
ssS'upload'
p1149
(dp1150
S'maximum_size'
p1151
S'14336'
p1152
sS'speed'
p1153
S'19200'
p1154
sS'maximum_data_size'
p1155
S'1024'
p1156
ssg272
S'ATmega168'
p1157
sS'build'
p1158
(dp1159
S'mcu'
p1160
S'atmega168'
p1161
sssS'atmega328'
p1162
(dp1163
S'bootloader'
p1164
(dp1165
S'low_fuses'
p1166
S'0xFF'
p1167
sS'extended_fuses'
p1168
S'0x05'
p1169
sS'high_fuses'
p1170
S'0xDA'
p1171
sS'file'
p1172
S'atmega/ATmegaBOOT_168_atmega328_pro_8MHz.hex'
p1173
ssS'upload'
p1174
(dp1175
S'maximum_size'
p1176
S'30720'
p1177
sS'speed'
p1178
S'57600'
p1179
sS'maximum_data_size'
p1180
S'2048'
p1181
ssg272
S'ATmega328'
p1182
sS'build'
p1183
(dp1184
S'mcu'
p1185
S'atmega328p'
p1186
sssssS'upload'
p1187
(dp1188
S'tool'
p1189
S'avrdude'
p1190
sS'protocol'
p1191
S'arduino'
p1192
ssS'build'
p1193
(dp1194
S'core'
p1195
S'arduino'
p1196
sS'f_cpu'
p1197
S'8000000L'
p1198
sS'board'
p1199
S'AVR_LILYPAD'
p1200
sS'variant'
p1201
S'standard'
p1202
ssg101
S'/usr/share/arduino/hardware/arduino/avr'
p1203
sS'bootloader'
p1204
(dp1205
S'lock_bits'
p1206
S'0x0F'
p1207
sS'tool'
p1208
S'avrdude'
p1209
sS'unlock_bits'
p1210
S'0x3F'
p1211
ssaa(lp1212
S'pro'
p1213
a(dp1214
S'name'
p1215
S'Arduino Pro or Pro Mini'
p1216
sS'menu'
p1217
(dp1218
S'cpu'
p1219
(dp1220
S'16MHzatmega328'
p1221
(dp1222
S'bootloader'
p1223
(dp1224
S'low_fuses'
p1225
S'0xFF'
p1226
sS'extended_fuses'
p1227
S'0x05'
p1228
sS'high_fuses'
p1229
S'0xDA'
p1230
sS'file'
p1231
S'atmega/ATmegaBOOT_168_atmega328.hex'
p1232
ssS'upload'
p1233
(dp1234
S'maximum_size'
p1235
S'30720'
p1236
sS'speed'
p1237
S'57600'
p1238
sS'maximum_data_size'
p1239
S'2048'
p1240
ssg272
S'ATmega328 (5V, 16 MHz)'
p1241
sS'build'
p1242
(dp1243
S'mcu'
p1244
S'atmega328p'
p1245
sS'f_cpu'
p1246
S'16000000L'
p1247
sssS'8MHzatmega328'
p1248
(dp1249
S'bootloader'
p1250
(dp1251
S'low_fuses'
p1252
S'0xFF'
p1253
sS'extended_fuses'
p1254
S'0x05'
p1255
sS'high_fuses'
p1256
S'0xDA'
p1257
sS'file'
p1258
S'atmega/ATmegaBOOT_168_atmega328_pro_8MHz.hex'
p1259
ssS'upload'
p1260
(dp1261
S'maximum_size'
p1262
S'30720'
p1263
sS'speed'
p1264
S'57600'
p1265
sS'maximum_data_size'
p1266
S'2048'
p1267
ssg272
S'ATmega328 (3.3V, 8 MHz)'
p1268
sS'build'
p1269
(dp1270
S'mcu'
p1271
S'atmega328p'
p1272
sS'f_cpu'
p1273
S'8000000L'
p1274
sssS'8MHzatmega168'
p1275
(dp1276
S'bootloader'
p1277
(dp1278
S'low_fuses'
p1279
S'0xc6'
p1280
sS'extended_fuses'
p1281
S'0x00'
p1282
sS'high_fuses'
p1283
S'0xdd'
p1284
sS'file'
p1285
S'atmega/ATmegaBOOT_168_pro_8MHz.hex'
p1286
ssS'upload'
p1287
(dp1288
S'maximum_size'
p1289
S'14336'
p1290
sS'speed'
p1291
S'19200'
p1292
sS'maximum_data_size'
p1293
S'1024'
p1294
ssg272
S'ATmega168 (3.3V, 8 MHz)'
p1295
sS'build'
p1296
(dp1297
S'mcu'
p1298
S'atmega168'
p1299
sS'f_cpu'
p1300
S'8000000L'
p1301
sssS'16MHzatmega168'
p1302
(dp1303
S'bootloader'
p1304
(dp1305
S'low_fuses'
p1306
S'0xff'
p1307
sS'extended_fuses'
p1308
S'0x00'
p1309
sS'high_fuses'
p1310
S'0xdd'
p1311
sS'file'
p1312
S'atmega/ATmegaBOOT_168_diecimila.hex'
p1313
ssS'upload'
p1314
(dp1315
S'maximum_size'
p1316
S'14336'
p1317
sS'speed'
p1318
S'19200'
p1319
sS'maximum_data_size'
p1320
S'1024'
p1321
ssg272
S'ATmega168 (5V, 16 MHz)'
p1322
sS'build'
p1323
(dp1324
S'mcu'
p1325
S'atmega168'
p1326
sS'f_cpu'
p1327
S'16000000L'
p1328
sssssS'upload'
p1329
(dp1330
S'tool'
p1331
S'avrdude'
p1332
sS'protocol'
p1333
S'arduino'
p1334
ssS'build'
p1335
(dp1336
S'core'
p1337
S'arduino'
p1338
sS'variant'
p1339
S'eightanaloginputs'
p1340
sS'board'
p1341
S'AVR_PRO'
p1342
ssg101
S'/usr/share/arduino/hardware/arduino/avr'
p1343
sS'bootloader'
p1344
(dp1345
S'lock_bits'
p1346
S'0x0F'
p1347
sS'tool'
p1348
S'avrdude'
p1349
sS'unlock_bits'
p1350
S'0x3F'
p1351
ssaa(lp1352
S'atmegang'
p1353
a(dp1354
S'name'
p1355
S'Arduino NG or older'
p1356
sS'menu'
p1357
(dp1358
S'cpu'
p1359
(dp1360
S'atmega168'
p1361
(dp1362
S'bootloader'
p1363
(dp1364
S'low_fuses'
p1365
S'0xff'
p1366
sS'extended_fuses'
p1367
S'0x00'
p1368
sS'high_fuses'
p1369
S'0xdd'
p1370
sS'file'
p1371
S'atmega/ATmegaBOOT_168_ng.hex'
p1372
ssS'upload'
p1373
(dp1374
S'maximum_size'
p1375
S'14336'
p1376
sS'maximum_data_size'
p1377
S'1024'
p1378
ssg272
S'ATmega168'
p1379
sS'build'
p1380
(dp1381
S'mcu'
p1382
S'atmega168'
p1383
sssS'atmega8'
p1384
(dp1385
S'bootloader'
p1386
(dp1387
S'low_fuses'
p1388
S'0xdf'
p1389
sS'high_fuses'
p1390
S'0xca'
p1391
sS'file'
p1392
S'atmega8/ATmegaBOOT-prod-firmware-2009-11-07.hex'
p1393
ssS'upload'
p1394
(dp1395
S'maximum_size'
p1396
S'7168'
p1397
sS'maximum_data_size'
p1398
S'1024'
p1399
ssg272
S'ATmega8'
p1400
sS'build'
p1401
(dp1402
S'mcu'
p1403
S'atmega8'
p1404
sssssS'upload'
p1405
(dp1406
S'speed'
p1407
S'19200'
p1408
sS'tool'
p1409
S'avrdude'
p1410
sS'protocol'
p1411
S'arduino'
p1412
ssS'build'
p1413
(dp1414
S'core'
p1415
S'arduino'
p1416
sS'mcu'
p1417
S'atmegang'
p1418
sS'f_cpu'
p1419
S'16000000L'
p1420
sS'board'
p1421
S'AVR_NG'
p1422
sS'variant'
p1423
S'standard'
p1424
ssg101
S'/usr/share/arduino/hardware/arduino/avr'
p1425
sS'bootloader'
p1426
(dp1427
S'lock_bits'
p1428
S'0x0F'
p1429
sS'tool'
p1430
S'avrdude'
p1431
sS'unlock_bits'
p1432
S'0x3F'
p1433
ssaa(lp1434
S'robotControl'
p1435
a(dp1436
S'name'
p1437
S'Arduino Robot Control'
p1438
sS'vid'
p1439
(dp1440
g110
S'0x2341'
p1441
sg112
S'0x2341'
p1442
sg114
S'0x2A03'
p1443
sg116
S'0x2A03'
p1444
sS'0x2A03'
p1445
(dp1446
S'warning'
p1447
S'Uncertified'
p1448
sssS'pid'
p1449
(dp1450
g110
S'0x8038'
p1451
sg112
S'0x0038'
p1452
sg114
S'0x8038'
p1453
sg116
S'0x0038'
p1454
ssS'upload'
p1455
(dp1456
S'protocol'
p1457
S'avr109'
p1458
sS'disable_flushing'
p1459
S'true'
p1460
sS'tool'
p1461
S'avrdude'
p1462
sS'maximum_data_size'
p1463
S'2560'
p1464
sS'maximum_size'
p1465
S'28672'
p1466
sS'use_1200bps_touch'
p1467
S'true'
p1468
sS'speed'
p1469
S'57600'
p1470
sS'wait_for_upload_port'
p1471
S'true'
p1472
ssS'build'
p1473
(dp1474
S'core'
p1475
S'arduino'
p1476
sS'f_cpu'
p1477
S'16000000L'
p1478
sS'vid'
p1479
S'0x2341'
p1480
sS'usb_product'
p1481
S'"Robot Control"'
p1482
sS'pid'
p1483
S'0x8038'
p1484
sS'extra_flags'
p1485
S'{build.usb_flags}'
p1486
sS'board'
p1487
S'AVR_ROBOT_CONTROL'
p1488
sS'mcu'
p1489
S'atmega32u4'
p1490
sS'variant'
p1491
S'robot_control'
p1492
ssg101
S'/usr/share/arduino/hardware/arduino/avr'
p1493
sS'bootloader'
p1494
(dp1495
S'extended_fuses'
p1496
S'0xcb'
p1497
sS'high_fuses'
p1498
S'0xd8'
p1499
sS'low_fuses'
p1500
S'0xff'
p1501
sS'lock_bits'
p1502
S'0x2F'
p1503
sS'tool'
p1504
S'avrdude'
p1505
sS'file'
p1506
S'caterina-Arduino_Robot/Caterina-Robot-Control.hex'
p1507
sS'unlock_bits'
p1508
S'0x3F'
p1509
ssaa(lp1510
S'robotMotor'
p1511
a(dp1512
S'name'
p1513
S'Arduino Robot Motor'
p1514
sS'vid'
p1515
(dp1516
g110
S'0x2341'
p1517
sg112
S'0x2341'
p1518
sg114
S'0x2A03'
p1519
sg116
S'0x2A03'
p1520
sS'0x2A03'
p1521
(dp1522
S'warning'
p1523
S'Uncertified'
p1524
sssS'pid'
p1525
(dp1526
g110
S'0x8039'
p1527
sg112
S'0x0039'
p1528
sg114
S'0x8039'
p1529
sg116
S'0x0039'
p1530
ssS'upload'
p1531
(dp1532
S'protocol'
p1533
S'avr109'
p1534
sS'disable_flushing'
p1535
S'true'
p1536
sS'tool'
p1537
S'avrdude'
p1538
sS'maximum_data_size'
p1539
S'2560'
p1540
sS'maximum_size'
p1541
S'28672'
p1542
sS'use_1200bps_touch'
p1543
S'true'
p1544
sS'speed'
p1545
S'57600'
p1546
sS'wait_for_upload_port'
p1547
S'true'
p1548
ssS'build'
p1549
(dp1550
S'core'
p1551
S'arduino'
p1552
sS'f_cpu'
p1553
S'16000000L'
p1554
sS'vid'
p1555
S'0x2341'
p1556
sS'usb_product'
p1557
S'"Robot Motor"'
p1558
sS'pid'
p1559
S'0x8039'
p1560
sS'extra_flags'
p1561
S'{build.usb_flags}'
p1562
sS'board'
p1563
S'AVR_ROBOT_MOTOR'
p1564
sS'mcu'
p1565
S'atmega32u4'
p1566
sS'variant'
p1567
S'robot_motor'
p1568
ssg101
S'/usr/share/arduino/hardware/arduino/avr'
p1569
sS'bootloader'
p1570
(dp1571
S'extended_fuses'
p1572
S'0xcb'
p1573
sS'high_fuses'
p1574
S'0xd8'
p1575
sS'low_fuses'
p1576
S'0xff'
p1577
sS'lock_bits'
p1578
S'0x2F'
p1579
sS'tool'
p1580
S'avrdude'
p1581
sS'file'
p1582
S'caterina-Arduino_Robot/Caterina-Robot-Motor.hex'
p1583
sS'unlock_bits'
p1584
S'0x3F'
p1585
ssaa(lp1586
S'arduino_due_x_dbg'
p1587
a(dp1588
S'name'
p1589
S'Arduino Due (Programming Port)'
p1590
sS'vid'
p1591
(dp1592
g110
S'0x2A03'
p1593
sg112
S'0x2341'
p1594
sS'0x2A03'
p1595
(dp1596
S'warning'
p1597
S'Uncertified'
p1598
sssS'pid'
p1599
(dp1600
g110
S'0x003d'
p1601
sg112
S'0x003d'
p1602
ssS'upload'
p1603
(dp1604
S'protocol'
p1605
S'sam-ba'
p1606
sS'wait_for_upload_port'
p1607
S'false'
p1608
sS'tool'
p1609
S'bossac'
p1610
sS'native_usb'
p1611
S'false'
p1612
sS'maximum_size'
p1613
S'524288'
p1614
sS'use_1200bps_touch'
p1615
S'true'
p1616
ssS'build'
p1617
(dp1618
S'core'
p1619
S'arduino'
p1620
sS'f_cpu'
p1621
S'84000000L'
p1622
sS'vid'
p1623
S'0x2341'
p1624
sS'usb_product'
p1625
S'"Arduino Due"'
p1626
sS'pid'
p1627
S'0x003e'
p1628
sS'variant'
p1629
S'arduino_due_x'
p1630
sS'extra_flags'
p1631
S'-D__SAM3X8E__ -mthumb {build.usb_flags}'
p1632
sS'variant_system_lib'
p1633
S'libsam_sam3x8e_gcc_rel.a'
p1634
sS'board'
p1635
S'SAM_DUE'
p1636
sS'ldscript'
p1637
S'linker_scripts/gcc/flash.ld'
p1638
sS'mcu'
p1639
S'cortex-m3'
p1640
ssg101
S'/usr/share/arduino/hardware/arduino/sam'
p1641
saa(lp1642
S'arduino_due_x'
p1643
a(dp1644
S'name'
p1645
S'Arduino Due (Native USB Port)'
p1646
sS'vid'
p1647
(dp1648
g110
S'0x2A03'
p1649
sg112
S'0x2341'
p1650
sS'0x2A03'
p1651
(dp1652
S'warning'
p1653
S'Uncertified'
p1654
sssS'pid'
p1655
(dp1656
g110
S'0x003e'
p1657
sg112
S'0x003e'
p1658
ssS'upload'
p1659
(dp1660
S'protocol'
p1661
S'sam-ba'
p1662
sS'wait_for_upload_port'
p1663
S'true'
p1664
sS'tool'
p1665
S'bossac'
p1666
sS'native_usb'
p1667
S'true'
p1668
sS'maximum_size'
p1669
S'524288'
p1670
sS'use_1200bps_touch'
p1671
S'true'
p1672
ssS'build'
p1673
(dp1674
S'core'
p1675
S'arduino'
p1676
sS'f_cpu'
p1677
S'84000000L'
p1678
sS'vid'
p1679
S'0x2341'
p1680
sS'usb_product'
p1681
S'"Arduino Due"'
p1682
sS'pid'
p1683
S'0x003e'
p1684
sS'variant'
p1685
S'arduino_due_x'
p1686
sS'extra_flags'
p1687
S'-D__SAM3X8E__ -mthumb {build.usb_flags}'
p1688
sS'variant_system_lib'
p1689
S'libsam_sam3x8e_gcc_rel.a'
p1690
sS'board'
p1691
S'SAM_DUE'
p1692
sS'ldscript'
p1693
S'linker_scripts/gcc/flash.ld'
p1694
sS'mcu'
p1695
S'cortex-m3'
p1696
ssg101
S'/usr/share/arduino/hardware/arduino/sam'
p1697
saatp1698
Rp1699
(dp1700
S'default'
p1701
S'uno'
p1702
sbtp1703
a(S'cxx'
p1704
S'/usr/share/arduino/hardware/tools/avr/bin/avr-g++'
p1705
tp1706
a.